target datalayout = "e-m:e-p270:32:32-p271:32:32-p272:64:64-i64:64-i128:128-f80:128-n8:16:32:64-S128"
target triple = "x86_64-pc-linux-gnu"

%"class.Imf_3_4::ChannelList::ConstIterator" = type { %"struct.std::_Rb_tree_const_iterator" }
%"struct.std::_Rb_tree_const_iterator" = type { ptr }
%"struct.Imf_3_4::Channel" = type <{ i32, i32, i32, i8, [3 x i8] }>
%"struct.std::pair" = type { %"class.Imf_3_4::Name", %"struct.Imf_3_4::Channel" }
%"class.Imf_3_4::Name" = type { [256 x i8] }
%"class.Imf_3_4::Header::ConstIterator" = type { %"struct.std::_Rb_tree_const_iterator.14" }
%"struct.std::_Rb_tree_const_iterator.14" = type { ptr }
%"struct.std::pair.21" = type { %"class.Imf_3_4::Name", ptr }
%"struct.std::_Rb_tree_node" = type { %"struct.std::_Rb_tree_node_base", %"struct.__gnu_cxx::__aligned_membuf" }
%"struct.std::_Rb_tree_node_base" = type { i32, ptr, ptr, ptr }
%"struct.__gnu_cxx::__aligned_membuf" = type { [272 x i8] }
%"struct.std::_Rb_tree_node.23" = type { %"struct.std::_Rb_tree_node_base", %"struct.__gnu_cxx::__aligned_membuf.24" }
%"struct.__gnu_cxx::__aligned_membuf.24" = type { [264 x i8] }

; Function Attrs: mustprogress nounwind uwtable
define linkonce_odr hidden noundef ptr @_ZNK9__gnu_cxx16__aligned_membufISt4pairIKN7Imf_3_44NameENS2_7ChannelEEE7_M_addrEv(ptr noundef nonnull align 4 dereferenceable(272) %0) #5 comdat align 2 {
  %2 = alloca ptr, align 8
  store ptr %0, ptr %2, align 8, !tbaa !221
  %3 = load ptr, ptr %2, align 8
  %4 = getelementptr inbounds nuw %"struct.__gnu_cxx::__aligned_membuf", ptr %3, i32 0, i32 0
  ret ptr %4
}

; Function Attrs: mustprogress nounwind uwtable
define linkonce_odr hidden noundef ptr @_ZNK9__gnu_cxx16__aligned_membufISt4pairIKN7Imf_3_44NameEPNS2_9AttributeEEE7_M_addrEv(ptr noundef nonnull align 8 dereferenceable(264) %0) #5 comdat align 2 {
  %2 = alloca ptr, align 8
  store ptr %0, ptr %2, align 8, !tbaa !233
  %3 = load ptr, ptr %2, align 8
  %4 = getelementptr inbounds nuw %"struct.__gnu_cxx::__aligned_membuf.24", ptr %3, i32 0, i32 0
  ret ptr %4
}

; Function Attrs: mustprogress nounwind uwtable
define linkonce_odr hidden noundef ptr @_ZNK9__gnu_cxx16__aligned_membufISt4pairIKN7Imf_3_44NameENS2_7ChannelEEE6_M_ptrEv(ptr noundef nonnull align 4 dereferenceable(272) %0) #5 comdat align 2 {
  %2 = alloca ptr, align 8
  store ptr %0, ptr %2, align 8, !tbaa !221
  %3 = load ptr, ptr %2, align 8
  %4 = call noundef ptr @_ZNK9__gnu_cxx16__aligned_membufISt4pairIKN7Imf_3_44NameENS2_7ChannelEEE7_M_addrEv(ptr noundef nonnull align 4 dereferenceable(272) %3) #3
  ret ptr %4
}

; Function Attrs: mustprogress nounwind uwtable
define linkonce_odr hidden noundef ptr @_ZNK9__gnu_cxx16__aligned_membufISt4pairIKN7Imf_3_44NameEPNS2_9AttributeEEE6_M_ptrEv(ptr noundef nonnull align 8 dereferenceable(264) %0) #5 comdat align 2 {
  %2 = alloca ptr, align 8
  store ptr %0, ptr %2, align 8, !tbaa !233
  %3 = load ptr, ptr %2, align 8
  %4 = call noundef ptr @_ZNK9__gnu_cxx16__aligned_membufISt4pairIKN7Imf_3_44NameEPNS2_9AttributeEEE7_M_addrEv(ptr noundef nonnull align 8 dereferenceable(264) %3) #3
  ret ptr %4
}

; Function Attrs: mustprogress nounwind uwtable
define linkonce_odr hidden noundef ptr @_ZNKSt13_Rb_tree_nodeISt4pairIKN7Imf_3_44NameENS1_7ChannelEEE9_M_valptrEv(ptr noundef nonnull align 8 dereferenceable(304) %0) #5 comdat align 2 {
  %2 = alloca ptr, align 8
  store ptr %0, ptr %2, align 8, !tbaa !219
  %3 = load ptr, ptr %2, align 8
  %4 = getelementptr inbounds nuw %"struct.std::_Rb_tree_node", ptr %3, i32 0, i32 1
  %5 = call noundef ptr @_ZNK9__gnu_cxx16__aligned_membufISt4pairIKN7Imf_3_44NameENS2_7ChannelEEE6_M_ptrEv(ptr noundef nonnull align 4 dereferenceable(272) %4) #3
  ret ptr %5
}

; Function Attrs: mustprogress nounwind uwtable
define linkonce_odr noundef zeroext i1 @_ZSteqRKSt23_Rb_tree_const_iteratorISt4pairIKN7Imf_3_44NameENS1_7ChannelEEES8_(ptr noundef nonnull align 8 dereferenceable(8) %0, ptr noundef nonnull align 8 dereferenceable(8) %1) #5 comdat {
  %3 = alloca ptr, align 8
  %4 = alloca ptr, align 8
  store ptr %0, ptr %3, align 8, !tbaa !214
  store ptr %1, ptr %4, align 8, !tbaa !214
  %5 = load ptr, ptr %3, align 8, !tbaa !214
  %6 = getelementptr inbounds nuw %"struct.std::_Rb_tree_const_iterator", ptr %5, i32 0, i32 0
  %7 = load ptr, ptr %6, align 8, !tbaa !216
  %8 = load ptr, ptr %4, align 8, !tbaa !214
  %9 = getelementptr inbounds nuw %"struct.std::_Rb_tree_const_iterator", ptr %8, i32 0, i32 0
  %10 = load ptr, ptr %9, align 8, !tbaa !216
  %11 = icmp eq ptr %7, %10
  ret i1 %11
}

; Function Attrs: noinline noreturn nounwind uwtable
define linkonce_odr hidden void @__clang_call_terminate(ptr noundef %0) #12 comdat {
  %2 = call ptr @__cxa_begin_catch(ptr %0) #3
  call void @_ZSt9terminatev() #20
  unreachable
}

; Function Attrs: mustprogress nounwind uwtable
define linkonce_odr hidden noundef ptr @_ZNKSt13_Rb_tree_nodeISt4pairIKN7Imf_3_44NameEPNS1_9AttributeEEE9_M_valptrEv(ptr noundef nonnull align 8 dereferenceable(296) %0) #5 comdat align 2 {
  %2 = alloca ptr, align 8
  store ptr %0, ptr %2, align 8, !tbaa !231
  %3 = load ptr, ptr %2, align 8
  %4 = getelementptr inbounds nuw %"struct.std::_Rb_tree_node.23", ptr %3, i32 0, i32 1
  %5 = call noundef ptr @_ZNK9__gnu_cxx16__aligned_membufISt4pairIKN7Imf_3_44NameEPNS2_9AttributeEEE6_M_ptrEv(ptr noundef nonnull align 8 dereferenceable(264) %4) #3
  ret ptr %5
}

; Function Attrs: mustprogress nounwind uwtable
define linkonce_odr noundef zeroext i1 @_ZSteqRKSt23_Rb_tree_const_iteratorISt4pairIKN7Imf_3_44NameEPNS1_9AttributeEEES9_(ptr noundef nonnull align 8 dereferenceable(8) %0, ptr noundef nonnull align 8 dereferenceable(8) %1) #5 comdat {
  %3 = alloca ptr, align 8
  %4 = alloca ptr, align 8
  store ptr %0, ptr %3, align 8, !tbaa !225
  store ptr %1, ptr %4, align 8, !tbaa !225
  %5 = load ptr, ptr %3, align 8, !tbaa !225
  %6 = getelementptr inbounds nuw %"struct.std::_Rb_tree_const_iterator.14", ptr %5, i32 0, i32 0
  %7 = load ptr, ptr %6, align 8, !tbaa !227
  %8 = load ptr, ptr %4, align 8, !tbaa !225
  %9 = getelementptr inbounds nuw %"struct.std::_Rb_tree_const_iterator.14", ptr %8, i32 0, i32 0
  %10 = load ptr, ptr %9, align 8, !tbaa !227
  %11 = icmp eq ptr %7, %10
  ret i1 %11
}

; Function Attrs: mustprogress nounwind uwtable
define linkonce_odr hidden noundef nonnull align 8 dereferenceable(8) ptr @_ZNSt23_Rb_tree_const_iteratorISt4pairIKN7Imf_3_44NameENS1_7ChannelEEEppEv(ptr noundef nonnull align 8 dereferenceable(8) %0) #5 comdat align 2 {
  %2 = alloca ptr, align 8
  store ptr %0, ptr %2, align 8, !tbaa !214
  %3 = load ptr, ptr %2, align 8
  %4 = getelementptr inbounds nuw %"struct.std::_Rb_tree_const_iterator", ptr %3, i32 0, i32 0
  %5 = load ptr, ptr %4, align 8, !tbaa !216
  %6 = call noundef ptr @_ZSt18_Rb_tree_incrementPKSt18_Rb_tree_node_base(ptr noundef %5) #21
  %7 = getelementptr inbounds nuw %"struct.std::_Rb_tree_const_iterator", ptr %3, i32 0, i32 0
  store ptr %6, ptr %7, align 8, !tbaa !216
  ret ptr %3
}

; Function Attrs: mustprogress nounwind uwtable
define linkonce_odr hidden noundef ptr @_ZNKSt23_Rb_tree_const_iteratorISt4pairIKN7Imf_3_44NameENS1_7ChannelEEEptEv(ptr noundef nonnull align 8 dereferenceable(8) %0) #5 comdat align 2 personality ptr @__gxx_personality_v0 {
  %2 = alloca ptr, align 8
  store ptr %0, ptr %2, align 8, !tbaa !214
  %3 = load ptr, ptr %2, align 8
  %4 = getelementptr inbounds nuw %"struct.std::_Rb_tree_const_iterator", ptr %3, i32 0, i32 0
  %5 = load ptr, ptr %4, align 8, !tbaa !216
  %6 = invoke noundef ptr @_ZNKSt13_Rb_tree_nodeISt4pairIKN7Imf_3_44NameENS1_7ChannelEEE9_M_valptrEv(ptr noundef nonnull align 8 dereferenceable(304) %5)
          to label %7 unwind label %8

7:                                                ; preds = %1
  ret ptr %6

8:                                                ; preds = %1
  %9 = landingpad { ptr, i32 }
          catch ptr null
  %10 = extractvalue { ptr, i32 } %9, 0
  call void @__clang_call_terminate(ptr %10) #20
  unreachable
}

; Function Attrs: inlinehint mustprogress nounwind uwtable
define linkonce_odr hidden noundef zeroext i1 @_ZN7Imf_3_4eqERKNS_11ChannelList13ConstIteratorES3_(ptr noundef nonnull align 8 dereferenceable(8) %0, ptr noundef nonnull align 8 dereferenceable(8) %1) #7 comdat {
  %3 = alloca ptr, align 8
  %4 = alloca ptr, align 8
  store ptr %0, ptr %3, align 8, !tbaa !44
  store ptr %1, ptr %4, align 8, !tbaa !44
  %5 = load ptr, ptr %3, align 8, !tbaa !44
  %6 = getelementptr inbounds nuw %"class.Imf_3_4::ChannelList::ConstIterator", ptr %5, i32 0, i32 0
  %7 = load ptr, ptr %4, align 8, !tbaa !44
  %8 = getelementptr inbounds nuw %"class.Imf_3_4::ChannelList::ConstIterator", ptr %7, i32 0, i32 0
  %9 = call noundef zeroext i1 @_ZSteqRKSt23_Rb_tree_const_iteratorISt4pairIKN7Imf_3_44NameENS1_7ChannelEEES8_(ptr noundef nonnull align 8 dereferenceable(8) %6, ptr noundef nonnull align 8 dereferenceable(8) %8) #3
  ret i1 %9
}

; Function Attrs: mustprogress nounwind uwtable
define linkonce_odr hidden noundef nonnull align 8 dereferenceable(8) ptr @_ZNSt23_Rb_tree_const_iteratorISt4pairIKN7Imf_3_44NameEPNS1_9AttributeEEEppEv(ptr noundef nonnull align 8 dereferenceable(8) %0) #5 comdat align 2 {
  %2 = alloca ptr, align 8
  store ptr %0, ptr %2, align 8, !tbaa !225
  %3 = load ptr, ptr %2, align 8
  %4 = getelementptr inbounds nuw %"struct.std::_Rb_tree_const_iterator.14", ptr %3, i32 0, i32 0
  %5 = load ptr, ptr %4, align 8, !tbaa !227
  %6 = call noundef ptr @_ZSt18_Rb_tree_incrementPKSt18_Rb_tree_node_base(ptr noundef %5) #21
  %7 = getelementptr inbounds nuw %"struct.std::_Rb_tree_const_iterator.14", ptr %3, i32 0, i32 0
  store ptr %6, ptr %7, align 8, !tbaa !227
  ret ptr %3
}

; Function Attrs: inlinehint mustprogress nounwind uwtable
define linkonce_odr hidden noundef ptr @_ZNK7Imf_3_44NamedeEv(ptr noundef nonnull align 1 dereferenceable(256) %0) #7 comdat align 2 {
  %2 = alloca ptr, align 8
  store ptr %0, ptr %2, align 8, !tbaa !229
  %3 = load ptr, ptr %2, align 8
  %4 = getelementptr inbounds nuw %"class.Imf_3_4::Name", ptr %3, i32 0, i32 0
  %5 = getelementptr inbounds [256 x i8], ptr %4, i64 0, i64 0
  ret ptr %5
}

; Function Attrs: mustprogress nounwind uwtable
define linkonce_odr hidden noundef ptr @_ZNKSt23_Rb_tree_const_iteratorISt4pairIKN7Imf_3_44NameEPNS1_9AttributeEEEptEv(ptr noundef nonnull align 8 dereferenceable(8) %0) #5 comdat align 2 personality ptr @__gxx_personality_v0 {
  %2 = alloca ptr, align 8
  store ptr %0, ptr %2, align 8, !tbaa !225
  %3 = load ptr, ptr %2, align 8
  %4 = getelementptr inbounds nuw %"struct.std::_Rb_tree_const_iterator.14", ptr %3, i32 0, i32 0
  %5 = load ptr, ptr %4, align 8, !tbaa !227
  %6 = invoke noundef ptr @_ZNKSt13_Rb_tree_nodeISt4pairIKN7Imf_3_44NameEPNS1_9AttributeEEE9_M_valptrEv(ptr noundef nonnull align 8 dereferenceable(296) %5)
          to label %7 unwind label %8

7:                                                ; preds = %1
  ret ptr %6

8:                                                ; preds = %1
  %9 = landingpad { ptr, i32 }
          catch ptr null
  %10 = extractvalue { ptr, i32 } %9, 0
  call void @__clang_call_terminate(ptr %10) #20
  unreachable
}

; Function Attrs: inlinehint mustprogress nounwind uwtable
define linkonce_odr hidden noundef zeroext i1 @_ZN7Imf_3_4eqERKNS_6Header13ConstIteratorES3_(ptr noundef nonnull align 8 dereferenceable(8) %0, ptr noundef nonnull align 8 dereferenceable(8) %1) #7 comdat {
  %3 = alloca ptr, align 8
  %4 = alloca ptr, align 8
  store ptr %0, ptr %3, align 8, !tbaa !192
  store ptr %1, ptr %4, align 8, !tbaa !192
  %5 = load ptr, ptr %3, align 8, !tbaa !192
  %6 = getelementptr inbounds nuw %"class.Imf_3_4::Header::ConstIterator", ptr %5, i32 0, i32 0
  %7 = load ptr, ptr %4, align 8, !tbaa !192
  %8 = getelementptr inbounds nuw %"class.Imf_3_4::Header::ConstIterator", ptr %7, i32 0, i32 0
  %9 = call noundef zeroext i1 @_ZSteqRKSt23_Rb_tree_const_iteratorISt4pairIKN7Imf_3_44NameEPNS1_9AttributeEEES9_(ptr noundef nonnull align 8 dereferenceable(8) %6, ptr noundef nonnull align 8 dereferenceable(8) %8) #3
  ret i1 %9
}

; Function Attrs: inlinehint mustprogress nounwind uwtable
define linkonce_odr noundef nonnull align 8 dereferenceable(8) ptr @_ZN7Imf_3_411ChannelList13ConstIteratorppEv(ptr noundef nonnull align 8 dereferenceable(8) %0) #7 comdat align 2 {
  %2 = alloca ptr, align 8
  store ptr %0, ptr %2, align 8, !tbaa !44
  %3 = load ptr, ptr %2, align 8
  %4 = getelementptr inbounds nuw %"class.Imf_3_4::ChannelList::ConstIterator", ptr %3, i32 0, i32 0
  %5 = call noundef nonnull align 8 dereferenceable(8) ptr @_ZNSt23_Rb_tree_const_iteratorISt4pairIKN7Imf_3_44NameENS1_7ChannelEEEppEv(ptr noundef nonnull align 8 dereferenceable(8) %4) #3
  ret ptr %3
}

; Function Attrs: inlinehint mustprogress nounwind uwtable
define linkonce_odr noundef ptr @_ZNK7Imf_3_411ChannelList13ConstIterator4nameEv(ptr noundef nonnull align 8 dereferenceable(8) %0) #7 comdat align 2 {
  %2 = alloca ptr, align 8
  store ptr %0, ptr %2, align 8, !tbaa !44
  %3 = load ptr, ptr %2, align 8
  %4 = getelementptr inbounds nuw %"class.Imf_3_4::ChannelList::ConstIterator", ptr %3, i32 0, i32 0
  %5 = call noundef ptr @_ZNKSt23_Rb_tree_const_iteratorISt4pairIKN7Imf_3_44NameENS1_7ChannelEEEptEv(ptr noundef nonnull align 8 dereferenceable(8) %4) #3
  %6 = getelementptr inbounds nuw %"struct.std::pair", ptr %5, i32 0, i32 0
  %7 = call noundef ptr @_ZNK7Imf_3_44NamedeEv(ptr noundef nonnull align 1 dereferenceable(256) %6)
  ret ptr %7
}

; Function Attrs: inlinehint mustprogress uwtable
define linkonce_odr hidden noundef zeroext i1 @_ZN7Imf_3_4neERKNS_11ChannelList13ConstIteratorES3_(ptr noundef nonnull align 8 dereferenceable(8) %0, ptr noundef nonnull align 8 dereferenceable(8) %1) #8 comdat {
  %3 = alloca ptr, align 8
  %4 = alloca ptr, align 8
  store ptr %0, ptr %3, align 8, !tbaa !44
  store ptr %1, ptr %4, align 8, !tbaa !44
  %5 = load ptr, ptr %3, align 8, !tbaa !44
  %6 = load ptr, ptr %4, align 8, !tbaa !44
  %7 = call noundef zeroext i1 @_ZN7Imf_3_4eqERKNS_11ChannelList13ConstIteratorES3_(ptr noundef nonnull align 8 dereferenceable(8) %5, ptr noundef nonnull align 8 dereferenceable(8) %6)
  %8 = xor i1 %7, true
  ret i1 %8
}

; Function Attrs: inlinehint mustprogress nounwind uwtable
define linkonce_odr noundef nonnull align 8 dereferenceable(8) ptr @_ZN7Imf_3_46Header13ConstIteratorppEv(ptr noundef nonnull align 8 dereferenceable(8) %0) #7 comdat align 2 {
  %2 = alloca ptr, align 8
  store ptr %0, ptr %2, align 8, !tbaa !192
  %3 = load ptr, ptr %2, align 8
  %4 = getelementptr inbounds nuw %"class.Imf_3_4::Header::ConstIterator", ptr %3, i32 0, i32 0
  %5 = call noundef nonnull align 8 dereferenceable(8) ptr @_ZNSt23_Rb_tree_const_iteratorISt4pairIKN7Imf_3_44NameEPNS1_9AttributeEEEppEv(ptr noundef nonnull align 8 dereferenceable(8) %4) #3
  ret ptr %3
}

; Function Attrs: inlinehint mustprogress nounwind uwtable
define linkonce_odr noundef nonnull align 8 dereferenceable(8) ptr @_ZNK7Imf_3_46Header13ConstIterator9attributeEv(ptr noundef nonnull align 8 dereferenceable(8) %0) #7 comdat align 2 {
  %2 = alloca ptr, align 8
  store ptr %0, ptr %2, align 8, !tbaa !192
  %3 = load ptr, ptr %2, align 8
  %4 = getelementptr inbounds nuw %"class.Imf_3_4::Header::ConstIterator", ptr %3, i32 0, i32 0
  %5 = call noundef ptr @_ZNKSt23_Rb_tree_const_iteratorISt4pairIKN7Imf_3_44NameEPNS1_9AttributeEEEptEv(ptr noundef nonnull align 8 dereferenceable(8) %4) #3
  %6 = getelementptr inbounds nuw %"struct.std::pair.21", ptr %5, i32 0, i32 1
  %7 = load ptr, ptr %6, align 8, !tbaa !194
  ret ptr %7
}

; Function Attrs: inlinehint mustprogress uwtable
define linkonce_odr noundef ptr @_ZNK7Imf_3_46Header13ConstIterator4nameEv(ptr noundef nonnull align 8 dereferenceable(8) %0) #8 comdat align 2 {
  %2 = alloca ptr, align 8
  store ptr %0, ptr %2, align 8, !tbaa !192
  %3 = load ptr, ptr %2, align 8
  %4 = getelementptr inbounds nuw %"class.Imf_3_4::Header::ConstIterator", ptr %3, i32 0, i32 0
  %5 = call noundef ptr @_ZNKSt23_Rb_tree_const_iteratorISt4pairIKN7Imf_3_44NameEPNS1_9AttributeEEEptEv(ptr noundef nonnull align 8 dereferenceable(8) %4) #3
  %6 = getelementptr inbounds nuw %"struct.std::pair.21", ptr %5, i32 0, i32 0
  %7 = call noundef ptr @_ZNK7Imf_3_44NamedeEv(ptr noundef nonnull align 1 dereferenceable(256) %6)
  ret ptr %7
}

; Function Attrs: inlinehint mustprogress uwtable
define linkonce_odr hidden noundef zeroext i1 @_ZN7Imf_3_4neERKNS_6Header13ConstIteratorES3_(ptr noundef nonnull align 8 dereferenceable(8) %0, ptr noundef nonnull align 8 dereferenceable(8) %1) #8 comdat {
  %3 = alloca ptr, align 8
  %4 = alloca ptr, align 8
  store ptr %0, ptr %3, align 8, !tbaa !192
  store ptr %1, ptr %4, align 8, !tbaa !192
  %5 = load ptr, ptr %3, align 8, !tbaa !192
  %6 = load ptr, ptr %4, align 8, !tbaa !192
  %7 = call noundef zeroext i1 @_ZN7Imf_3_4eqERKNS_6Header13ConstIteratorES3_(ptr noundef nonnull align 8 dereferenceable(8) %5, ptr noundef nonnull align 8 dereferenceable(8) %6)
  %8 = xor i1 %7, true
  ret i1 %8
}

; Function Attrs: mustprogress uwtable
define noundef zeroext i1 @_ZN7Imf_3_413usesLongNamesERKNS_6HeaderE(ptr noundef nonnull align 8 dereferenceable(49) %0) #6 {
  %2 = alloca i1, align 1
  %3 = alloca ptr, align 8
  %4 = alloca %"class.Imf_3_4::Header::ConstIterator", align 8
  %5 = alloca %"class.Imf_3_4::Header::ConstIterator", align 8
  %6 = alloca i32, align 4
  %7 = alloca ptr, align 8
  %8 = alloca %"class.Imf_3_4::ChannelList::ConstIterator", align 8
  %9 = alloca %"class.Imf_3_4::ChannelList::ConstIterator", align 8
  store ptr %0, ptr %3, align 8, !tbaa !16
  call void @llvm.lifetime.start.p0(i64 8, ptr %4) #3
  %10 = load ptr, ptr %3, align 8, !tbaa !16
  %11 = call ptr @_ZNK7Imf_3_46Header5beginEv(ptr noundef nonnull align 8 dereferenceable(49) %10)
  %12 = getelementptr inbounds nuw %"class.Imf_3_4::Header::ConstIterator", ptr %4, i32 0, i32 0
  %13 = getelementptr inbounds nuw %"struct.std::_Rb_tree_const_iterator.14", ptr %12, i32 0, i32 0
  store ptr %11, ptr %13, align 8
  br label %14

14:                                               ; preds = %35, %1
  call void @llvm.lifetime.start.p0(i64 8, ptr %5) #3
  %15 = load ptr, ptr %3, align 8, !tbaa !16
  %16 = call ptr @_ZNK7Imf_3_46Header3endEv(ptr noundef nonnull align 8 dereferenceable(49) %15)
  %17 = getelementptr inbounds nuw %"class.Imf_3_4::Header::ConstIterator", ptr %5, i32 0, i32 0
  %18 = getelementptr inbounds nuw %"struct.std::_Rb_tree_const_iterator.14", ptr %17, i32 0, i32 0
  store ptr %16, ptr %18, align 8
  %19 = call noundef zeroext i1 @_ZN7Imf_3_4neERKNS_6Header13ConstIteratorES3_(ptr noundef nonnull align 8 dereferenceable(8) %4, ptr noundef nonnull align 8 dereferenceable(8) %5)
  call void @llvm.lifetime.end.p0(i64 8, ptr %5) #3
  br i1 %19, label %21, label %20

20:                                               ; preds = %14
  store i32 2, ptr %6, align 4
  br label %37

21:                                               ; preds = %14
  %22 = call noundef ptr @_ZNK7Imf_3_46Header13ConstIterator4nameEv(ptr noundef nonnull align 8 dereferenceable(8) %4)
  %23 = call i64 @strlen(ptr noundef %22) #21
  %24 = icmp uge i64 %23, 32
  br i1 %24, label %33, label %25

25:                                               ; preds = %21
  %26 = call noundef nonnull align 8 dereferenceable(8) ptr @_ZNK7Imf_3_46Header13ConstIterator9attributeEv(ptr noundef nonnull align 8 dereferenceable(8) %4)
  %27 = load ptr, ptr %26, align 8, !tbaa !56
  %28 = getelementptr inbounds ptr, ptr %27, i64 2
  %29 = load ptr, ptr %28, align 8
  %30 = call noundef ptr %29(ptr noundef nonnull align 8 dereferenceable(8) %26)
  %31 = call i64 @strlen(ptr noundef %30) #21
  %32 = icmp uge i64 %31, 32
  br i1 %32, label %33, label %34

33:                                               ; preds = %25, %21
  store i1 true, ptr %2, align 1
  store i32 1, ptr %6, align 4
  br label %37

34:                                               ; preds = %25
  br label %35

35:                                               ; preds = %34
  %36 = call noundef nonnull align 8 dereferenceable(8) ptr @_ZN7Imf_3_46Header13ConstIteratorppEv(ptr noundef nonnull align 8 dereferenceable(8) %4)
  br label %14, !llvm.loop !190

37:                                               ; preds = %33, %20
  call void @llvm.lifetime.end.p0(i64 8, ptr %4) #3
  %38 = load i32, ptr %6, align 4
  switch i32 %38, label %67 [
    i32 2, label %39
    i32 1, label %65
  ]

39:                                               ; preds = %37
  call void @llvm.lifetime.start.p0(i64 8, ptr %7) #3
  %40 = load ptr, ptr %3, align 8, !tbaa !16
  %41 = call noundef nonnull align 8 dereferenceable(48) ptr @_ZNK7Imf_3_46Header8channelsEv(ptr noundef nonnull align 8 dereferenceable(49) %40)
  store ptr %41, ptr %7, align 8, !tbaa !22
  call void @llvm.lifetime.start.p0(i64 8, ptr %8) #3
  %42 = load ptr, ptr %7, align 8, !tbaa !22
  %43 = call ptr @_ZNK7Imf_3_411ChannelList5beginEv(ptr noundef nonnull align 8 dereferenceable(48) %42)
  %44 = getelementptr inbounds nuw %"class.Imf_3_4::ChannelList::ConstIterator", ptr %8, i32 0, i32 0
  %45 = getelementptr inbounds nuw %"struct.std::_Rb_tree_const_iterator", ptr %44, i32 0, i32 0
  store ptr %43, ptr %45, align 8
  br label %46

46:                                               ; preds = %59, %39
  call void @llvm.lifetime.start.p0(i64 8, ptr %9) #3
  %47 = load ptr, ptr %7, align 8, !tbaa !22
  %48 = call ptr @_ZNK7Imf_3_411ChannelList3endEv(ptr noundef nonnull align 8 dereferenceable(48) %47)
  %49 = getelementptr inbounds nuw %"class.Imf_3_4::ChannelList::ConstIterator", ptr %9, i32 0, i32 0
  %50 = getelementptr inbounds nuw %"struct.std::_Rb_tree_const_iterator", ptr %49, i32 0, i32 0
  store ptr %48, ptr %50, align 8
  %51 = call noundef zeroext i1 @_ZN7Imf_3_4neERKNS_11ChannelList13ConstIteratorES3_(ptr noundef nonnull align 8 dereferenceable(8) %8, ptr noundef nonnull align 8 dereferenceable(8) %9)
  call void @llvm.lifetime.end.p0(i64 8, ptr %9) #3
  br i1 %51, label %53, label %52

52:                                               ; preds = %46
  store i32 5, ptr %6, align 4
  br label %61

53:                                               ; preds = %46
  %54 = call noundef ptr @_ZNK7Imf_3_411ChannelList13ConstIterator4nameEv(ptr noundef nonnull align 8 dereferenceable(8) %8)
  %55 = call i64 @strlen(ptr noundef %54) #21
  %56 = icmp uge i64 %55, 32
  br i1 %56, label %57, label %58

57:                                               ; preds = %53
  store i1 true, ptr %2, align 1
  store i32 1, ptr %6, align 4
  br label %61

58:                                               ; preds = %53
  br label %59

59:                                               ; preds = %58
  %60 = call noundef nonnull align 8 dereferenceable(8) ptr @_ZN7Imf_3_411ChannelList13ConstIteratorppEv(ptr noundef nonnull align 8 dereferenceable(8) %8)
  br label %46, !llvm.loop !191

61:                                               ; preds = %57, %52
  call void @llvm.lifetime.end.p0(i64 8, ptr %8) #3
  %62 = load i32, ptr %6, align 4
  switch i32 %62, label %64 [
    i32 5, label %63
  ]

63:                                               ; preds = %61
  store i1 false, ptr %2, align 1
  store i32 1, ptr %6, align 4
  br label %64

64:                                               ; preds = %63, %61
  call void @llvm.lifetime.end.p0(i64 8, ptr %7) #3
  br label %65

65:                                               ; preds = %64, %37
  %66 = load i1, ptr %2, align 1
  ret i1 %66

67:                                               ; preds = %37
  unreachable
}