; Function Attrs: mustprogress uwtable
define noundef zeroext i1 @_ZN7Imf_3_413usesLongNamesERKNS_6HeaderE(ptr noundef nonnull align 8 dereferenceable(49) %0) local_unnamed_addr #5 personality ptr @__gxx_personality_v0 {
  %2 = tail call ptr @_ZNK7Imf_3_46Header5beginEv(ptr noundef nonnull align 8 dereferenceable(49) %0)
  %3 = tail call ptr @_ZNK7Imf_3_46Header3endEv(ptr noundef nonnull align 8 dereferenceable(49) %0)
  %.not22 = icmp eq ptr %2, %3
  br i1 %.not22, label %._crit_edge, label %.lr.ph

.lr.ph:                                           ; preds = %1, %16
  %.sroa.013.023 = phi ptr [ %17, %16 ], [ %2, %1 ]
  %4 = getelementptr inbounds nuw i8, ptr %.sroa.013.023, i64 32
  %5 = tail call i64 @strlen(ptr noundef nonnull dereferenceable(1) %4) #22
  %6 = icmp ugt i64 %5, 31
  br i1 %6, label %.critedge, label %7

7:                                                ; preds = %.lr.ph
  %8 = getelementptr inbounds nuw i8, ptr %.sroa.013.023, i64 288
  %9 = load ptr, ptr %8, align 8, !tbaa !151
  %10 = load ptr, ptr %9, align 8, !tbaa !35
  %11 = getelementptr inbounds nuw i8, ptr %10, i64 16
  %12 = load ptr, ptr %11, align 8
  %13 = tail call noundef ptr %12(ptr noundef nonnull align 8 dereferenceable(8) %9)
  %14 = tail call i64 @strlen(ptr noundef nonnull dereferenceable(1) %13) #22
  %15 = icmp ugt i64 %14, 31
  br i1 %15, label %.critedge, label %16

16:                                               ; preds = %7
  %17 = tail call noundef ptr @_ZSt18_Rb_tree_incrementPKSt18_Rb_tree_node_base(ptr noundef nonnull %.sroa.013.023) #22
  %18 = tail call ptr @_ZNK7Imf_3_46Header3endEv(ptr noundef nonnull align 8 dereferenceable(49) %0)
  %.not = icmp eq ptr %17, %18
  br i1 %.not, label %._crit_edge, label %.lr.ph, !llvm.loop !155

._crit_edge:                                      ; preds = %16, %1
  %19 = tail call noundef nonnull align 8 dereferenceable(48) ptr @_ZNK7Imf_3_46Header8channelsEv(ptr noundef nonnull align 8 dereferenceable(49) %0)
  %20 = tail call ptr @_ZNK7Imf_3_411ChannelList5beginEv(ptr noundef nonnull align 8 dereferenceable(48) %19)
  %21 = tail call ptr @_ZNK7Imf_3_411ChannelList3endEv(ptr noundef nonnull align 8 dereferenceable(48) %19)
  %.not2024 = icmp eq ptr %20, %21
  br i1 %.not2024, label %.critedge, label %.lr.ph27

.lr.ph27:                                         ; preds = %._crit_edge, %25
  %.sroa.09.025 = phi ptr [ %26, %25 ], [ %20, %._crit_edge ]
  %22 = getelementptr inbounds nuw i8, ptr %.sroa.09.025, i64 32
  %23 = tail call i64 @strlen(ptr noundef nonnull dereferenceable(1) %22) #22
  %24 = icmp ugt i64 %23, 31
  br i1 %24, label %.critedge, label %25

25:                                               ; preds = %.lr.ph27
  %26 = tail call noundef ptr @_ZSt18_Rb_tree_incrementPKSt18_Rb_tree_node_base(ptr noundef nonnull %.sroa.09.025) #22
  %27 = tail call ptr @_ZNK7Imf_3_411ChannelList3endEv(ptr noundef nonnull align 8 dereferenceable(48) %19)
  %.not20 = icmp eq ptr %26, %27
  br i1 %.not20, label %.critedge, label %.lr.ph27, !llvm.loop !156

.critedge:                                        ; preds = %.lr.ph, %7, %.lr.ph27, %25, %._crit_edge
  %.1 = phi i1 [ false, %._crit_edge ], [ %24, %25 ], [ %24, %.lr.ph27 ], [ true, %7 ], [ true, %.lr.ph ]
  ret i1 %.1
}